target datalayout = "e-m:e-p270:32:32-p271:32:32-p272:64:64-i64:64-i128:128-f80:128-n8:16:32:64-S128"
target triple = "x86_64-pc-linux-gnu"

%struct.Abc_TgMan_t_ = type { ptr, i32, i32, i32, i32, i32, [16 x i8], [16 x i8], [16 x i8], [16 x i8], [16 x %struct.TiedGroup_], [16 x i8], [17 x i8], i32, [16 x i8], ptr }
%struct.TiedGroup_ = type { i8, i8 }
%struct.Abc_SccCost_t_ = type { i32, i32, i32 }

; Function Attrs: inlinehint nounwind uwtable
define internal double @Abc_SccEnumCost(ptr noundef %0, i64 %1, i32 %2) #2 {
  %4 = alloca double, align 8
  %5 = alloca %struct.Abc_SccCost_t_, align 4
  %6 = alloca { i64, i32 }, align 4
  %7 = alloca ptr, align 8
  %8 = getelementptr inbounds nuw { i64, i32 }, ptr %6, i32 0, i32 0
  store i64 %1, ptr %8, align 4
  %9 = getelementptr inbounds nuw { i64, i32 }, ptr %6, i32 0, i32 1
  store i32 %2, ptr %9, align 4
  call void @llvm.memcpy.p0.p0.i64(ptr align 4 %5, ptr align 4 %6, i64 12, i1 false)
  store ptr %0, ptr %7, align 8, !tbaa !116
  %10 = load ptr, ptr %7, align 8, !tbaa !116
  %11 = getelementptr inbounds nuw %struct.Abc_TgMan_t_, ptr %10, i32 0, i32 13
  %12 = load i32, ptr %11, align 8, !tbaa !132
  switch i32 %12, label %54 [
    i32 0, label %13
    i32 1, label %26
    i32 2, label %39
  ]

13:                                               ; preds = %3
  %14 = load ptr, ptr %7, align 8, !tbaa !116
  %15 = getelementptr inbounds nuw %struct.Abc_TgMan_t_, ptr %14, i32 0, i32 1
  %16 = load i32, ptr %15, align 8, !tbaa !122
  %17 = sitofp i32 %16 to double
  %18 = getelementptr inbounds nuw %struct.Abc_SccCost_t_, ptr %5, i32 0, i32 1
  %19 = load i32, ptr %18, align 4, !tbaa !147
  %20 = sitofp i32 %19 to double
  %21 = call double @llvm.fmuladd.f64(double %20, double 1.090000e+00, double %17)
  %22 = getelementptr inbounds nuw %struct.Abc_SccCost_t_, ptr %5, i32 0, i32 2
  %23 = load i32, ptr %22, align 4, !tbaa !144
  %24 = sitofp i32 %23 to double
  %25 = call double @llvm.fmuladd.f64(double %24, double 1.144000e-02, double %21)
  store double %25, ptr %4, align 8
  br label %55

26:                                               ; preds = %3
  %27 = load ptr, ptr %7, align 8, !tbaa !116
  %28 = getelementptr inbounds nuw %struct.Abc_TgMan_t_, ptr %27, i32 0, i32 1
  %29 = load i32, ptr %28, align 8, !tbaa !122
  %30 = sitofp i32 %29 to double
  %31 = getelementptr inbounds nuw %struct.Abc_SccCost_t_, ptr %5, i32 0, i32 1
  %32 = load i32, ptr %31, align 4, !tbaa !147
  %33 = sitofp i32 %32 to double
  %34 = call double @llvm.fmuladd.f64(double %33, double 0x3FEB5C28F5C28F5C, double %30)
  %35 = getelementptr inbounds nuw %struct.Abc_SccCost_t_, ptr %5, i32 0, i32 2
  %36 = load i32, ptr %35, align 4, !tbaa !144
  %37 = sitofp i32 %36 to double
  %38 = call double @llvm.fmuladd.f64(double %37, double 0x3F8052934ACAFF6D, double %34)
  store double %38, ptr %4, align 8
  br label %55

39:                                               ; preds = %3
  %40 = load ptr, ptr %7, align 8, !tbaa !116
  %41 = getelementptr inbounds nuw %struct.Abc_TgMan_t_, ptr %40, i32 0, i32 1
  %42 = load i32, ptr %41, align 8, !tbaa !122
  %43 = sitofp i32 %42 to double
  %44 = getelementptr inbounds nuw %struct.Abc_SccCost_t_, ptr %5, i32 0, i32 1
  %45 = load i32, ptr %44, align 4, !tbaa !147
  %46 = sitofp i32 %45 to double
  %47 = fmul double %46, 8.850000e-01
  %48 = call double @llvm.fmuladd.f64(double %43, double 0x3FEE147AE147AE14, double %47)
  %49 = getelementptr inbounds nuw %struct.Abc_SccCost_t_, ptr %5, i32 0, i32 2
  %50 = load i32, ptr %49, align 4, !tbaa !144
  %51 = sitofp i32 %50 to double
  %52 = call double @llvm.fmuladd.f64(double %51, double 8.550000e-03, double %48)
  %53 = fsub double %52, 2.059000e+01
  store double %53, ptr %4, align 8
  br label %55

54:                                               ; preds = %3
  store double 0.000000e+00, ptr %4, align 8
  br label %55

55:                                               ; preds = %54, %39, %26, %13
  %56 = load double, ptr %4, align 8
  ret double %56
}