; Function Attrs: inlinehint mustprogress nofree norecurse nosync nounwind willreturn memory(argmem: read) uwtable
define internal fastcc double @Abc_SccEnumCost(ptr noundef nonnull readonly captures(none) %0, i64 %1, i32 %2) unnamed_addr #15 {
  %.sroa.1.0.extract.shift = lshr i64 %1, 32
  %.sroa.1.0.extract.trunc = trunc nuw i64 %.sroa.1.0.extract.shift to i32
  %4 = getelementptr inbounds nuw i8, ptr %0, i64 160
  %5 = load i32, ptr %4, align 8, !tbaa !125
  switch i32 %5, label %32 [
    i32 0, label %6
    i32 1, label %14
    i32 2, label %22
  ]

6:                                                ; preds = %3
  %7 = getelementptr inbounds nuw i8, ptr %0, i64 8
  %8 = load i32, ptr %7, align 8, !tbaa !115
  %9 = sitofp i32 %8 to double
  %10 = sitofp i32 %.sroa.1.0.extract.trunc to double
  %11 = tail call double @llvm.fmuladd.f64(double %10, double 1.090000e+00, double %9)
  %12 = sitofp i32 %2 to double
  %13 = tail call double @llvm.fmuladd.f64(double %12, double 1.144000e-02, double %11)
  br label %32

14:                                               ; preds = %3
  %15 = getelementptr inbounds nuw i8, ptr %0, i64 8
  %16 = load i32, ptr %15, align 8, !tbaa !115
  %17 = sitofp i32 %16 to double
  %18 = sitofp i32 %.sroa.1.0.extract.trunc to double
  %19 = tail call double @llvm.fmuladd.f64(double %18, double 0x3FEB5C28F5C28F5C, double %17)
  %20 = sitofp i32 %2 to double
  %21 = tail call double @llvm.fmuladd.f64(double %20, double 0x3F8052934ACAFF6D, double %19)
  br label %32

22:                                               ; preds = %3
  %23 = getelementptr inbounds nuw i8, ptr %0, i64 8
  %24 = load i32, ptr %23, align 8, !tbaa !115
  %25 = sitofp i32 %24 to double
  %26 = sitofp i32 %.sroa.1.0.extract.trunc to double
  %27 = fmul double %26, 8.850000e-01
  %28 = tail call double @llvm.fmuladd.f64(double %25, double 0x3FEE147AE147AE14, double %27)
  %29 = sitofp i32 %2 to double
  %30 = tail call double @llvm.fmuladd.f64(double %29, double 8.550000e-03, double %28)
  %31 = fadd double %30, -2.059000e+01
  br label %32

32:                                               ; preds = %3, %22, %14, %6
  %.0 = phi double [ %31, %22 ], [ %21, %14 ], [ %13, %6 ], [ 0.000000e+00, %3 ]
  ret double %.0
}